target datalayout = "e-m:e-p270:32:32-p271:32:32-p272:64:64-i64:64-i128:128-f80:128-n8:16:32:64-S128"
target triple = "x86_64-pc-linux-gnu"

%struct.Node = type { i32 }
%struct.Expr = type { i32 }
%union.ListCell = type { ptr }
%struct.ColumnRef = type { i32, ptr, i32 }
%struct.SubLink = type { %struct.Expr, i32, i32, ptr, ptr, ptr, i32 }
%struct.Query = type { i32, i32, i32, i64, i8, ptr, i32, i8, i8, i8, i8, i8, i8, i8, i8, i8, i8, i8, ptr, ptr, ptr, ptr, ptr, i32, ptr, ptr, i32, ptr, ptr, ptr, ptr, ptr, i8, ptr, ptr, ptr, ptr, ptr, ptr, ptr, i32, ptr, ptr, ptr, ptr, i32, i32 }
%struct.ResTarget = type { i32, ptr, ptr, ptr, i32 }
%struct.JsonArrayQueryConstructor = type { i32, ptr, ptr, ptr, i8, i32 }
%struct.JsonArrayAgg = type { i32, ptr, ptr, i8 }
%struct.JsonAggConstructor = type { i32, ptr, ptr, ptr, ptr, i32 }
%struct.Alias = type { i32, ptr, ptr }
%struct.RangeSubselect = type { i32, i8, ptr, ptr }
%struct.SelectStmt = type { i32, ptr, ptr, ptr, ptr, ptr, ptr, i8, ptr, ptr, ptr, ptr, ptr, ptr, i32, ptr, ptr, i32, i8, ptr, ptr, i32, i32 }

@.str.41 = private unnamed_addr constant [13 x i8] c"parse_expr.c\00", align 1
@.str.103 = private unnamed_addr constant [37 x i8] c"subquery must return only one column\00", align 1
@__func__.transformJsonArrayQueryConstructor = private unnamed_addr constant [35 x i8] c"transformJsonArrayQueryConstructor\00", align 1
@.str.150 = private unnamed_addr constant [2 x i8] c"q\00", align 1
@.str.151 = private unnamed_addr constant [2 x i8] c"a\00", align 1

; Function Attrs: inlinehint nounwind uwtable
define internal ptr @newNode(i64 noundef %0, i32 noundef %1) #4 {
  %3 = alloca i64, align 8
  %4 = alloca i32, align 4
  %5 = alloca ptr, align 8
  store i64 %0, ptr %3, align 8
  store i32 %1, ptr %4, align 4
  call void @llvm.lifetime.start.p0(i64 8, ptr %5) #8
  %6 = load i64, ptr %3, align 8
  %7 = call ptr @palloc0(i64 noundef %6)
  store ptr %7, ptr %5, align 8
  %8 = load i32, ptr %4, align 4
  %9 = load ptr, ptr %5, align 8
  %10 = getelementptr inbounds nuw %struct.Node, ptr %9, i32 0, i32 0
  store i32 %8, ptr %10, align 4
  %11 = load ptr, ptr %5, align 8
  call void @llvm.lifetime.end.p0(i64 8, ptr %5) #8
  ret ptr %11
}

; Function Attrs: nounwind uwtable
define internal ptr @transformJsonArrayQueryConstructor(ptr noundef %0, ptr noundef %1) #0 {
  %3 = alloca ptr, align 8
  %4 = alloca ptr, align 8
  %5 = alloca ptr, align 8
  %6 = alloca ptr, align 8
  %7 = alloca ptr, align 8
  %8 = alloca ptr, align 8
  %9 = alloca ptr, align 8
  %10 = alloca ptr, align 8
  %11 = alloca ptr, align 8
  %12 = alloca ptr, align 8
  %13 = alloca ptr, align 8
  %14 = alloca %union.ListCell, align 8
  %15 = alloca %union.ListCell, align 8
  %16 = alloca %union.ListCell, align 8
  %17 = alloca %union.ListCell, align 8
  %18 = alloca %union.ListCell, align 8
  store ptr %0, ptr %3, align 8
  store ptr %1, ptr %4, align 8
  call void @llvm.lifetime.start.p0(i64 8, ptr %5) #8
  %19 = call ptr @newNode(i64 noundef 48, i32 noundef 22)
  store ptr %19, ptr %5, align 8
  call void @llvm.lifetime.start.p0(i64 8, ptr %6) #8
  %20 = call ptr @newNode(i64 noundef 168, i32 noundef 141)
  store ptr %20, ptr %6, align 8
  call void @llvm.lifetime.start.p0(i64 8, ptr %7) #8
  %21 = call ptr @newNode(i64 noundef 24, i32 noundef 85)
  store ptr %21, ptr %7, align 8
  call void @llvm.lifetime.start.p0(i64 8, ptr %8) #8
  %22 = call ptr @newNode(i64 noundef 24, i32 noundef 2)
  store ptr %22, ptr %8, align 8
  call void @llvm.lifetime.start.p0(i64 8, ptr %9) #8
  %23 = call ptr @newNode(i64 noundef 40, i32 noundef 81)
  store ptr %23, ptr %9, align 8
  call void @llvm.lifetime.start.p0(i64 8, ptr %10) #8
  %24 = call ptr @newNode(i64 noundef 32, i32 noundef 135)
  store ptr %24, ptr %10, align 8
  call void @llvm.lifetime.start.p0(i64 8, ptr %11) #8
  %25 = call ptr @newNode(i64 noundef 24, i32 noundef 69)
  store ptr %25, ptr %11, align 8
  call void @llvm.lifetime.start.p0(i64 8, ptr %12) #8
  call void @llvm.lifetime.start.p0(i64 8, ptr %13) #8
  %26 = load ptr, ptr %3, align 8
  %27 = call ptr @make_parsestate(ptr noundef %26)
  store ptr %27, ptr %13, align 8
  %28 = load ptr, ptr %13, align 8
  %29 = load ptr, ptr %4, align 8
  %30 = getelementptr inbounds nuw %struct.JsonArrayQueryConstructor, ptr %29, i32 0, i32 1
  %31 = load ptr, ptr %30, align 8
  %32 = call ptr @transformStmt(ptr noundef %28, ptr noundef %31)
  store ptr %32, ptr %12, align 8
  %33 = load ptr, ptr %12, align 8
  %34 = getelementptr inbounds nuw %struct.Query, ptr %33, i32 0, i32 25
  %35 = load ptr, ptr %34, align 8
  %36 = call i32 @count_nonjunk_tlist_entries(ptr noundef %35)
  %37 = icmp ne i32 %36, 1
  br i1 %37, label %38, label %55

38:                                               ; preds = %2
  br label %39

39:                                               ; preds = %38
  br i1 true, label %40, label %42

40:                                               ; preds = %39
  %41 = call zeroext i1 @errstart_cold(i32 noundef 21, ptr noundef null) #9
  br i1 %41, label %44, label %52

42:                                               ; preds = %39
  %43 = call zeroext i1 @errstart(i32 noundef 21, ptr noundef null)
  br i1 %43, label %44, label %52

44:                                               ; preds = %42, %40
  %45 = call i32 @errcode(i32 noundef 16801924)
  %46 = call i32 (ptr, ...) @errmsg(ptr noundef @.str.103)
  %47 = load ptr, ptr %3, align 8
  %48 = load ptr, ptr %4, align 8
  %49 = getelementptr inbounds nuw %struct.JsonArrayQueryConstructor, ptr %48, i32 0, i32 5
  %50 = load i32, ptr %49, align 4
  %51 = call i32 @parser_errposition(ptr noundef %47, i32 noundef %50)
  call void @errfinish(ptr noundef @.str.41, i32 noundef 3773, ptr noundef @__func__.transformJsonArrayQueryConstructor)
  br label %52

52:                                               ; preds = %44, %42, %40
  unreachable

53:                                               ; No predecessors!
  br label %54

54:                                               ; preds = %53
  br label %55

55:                                               ; preds = %54, %2
  %56 = load ptr, ptr %13, align 8
  call void @free_parsestate(ptr noundef %56)
  %57 = call ptr @pstrdup(ptr noundef @.str.150)
  %58 = call ptr @makeString(ptr noundef %57)
  store ptr %58, ptr %14, align 8
  %59 = call ptr @pstrdup(ptr noundef @.str.151)
  %60 = call ptr @makeString(ptr noundef %59)
  store ptr %60, ptr %15, align 8
  %61 = getelementptr inbounds nuw %union.ListCell, ptr %14, i32 0, i32 0
  %62 = load ptr, ptr %61, align 8
  %63 = getelementptr inbounds nuw %union.ListCell, ptr %15, i32 0, i32 0
  %64 = load ptr, ptr %63, align 8
  %65 = call ptr @list_make2_impl(i32 noundef 1, ptr %62, ptr %64)
  %66 = load ptr, ptr %11, align 8
  %67 = getelementptr inbounds nuw %struct.ColumnRef, ptr %66, i32 0, i32 1
  store ptr %65, ptr %67, align 8
  %68 = load ptr, ptr %4, align 8
  %69 = getelementptr inbounds nuw %struct.JsonArrayQueryConstructor, ptr %68, i32 0, i32 5
  %70 = load i32, ptr %69, align 4
  %71 = load ptr, ptr %11, align 8
  %72 = getelementptr inbounds nuw %struct.ColumnRef, ptr %71, i32 0, i32 2
  store i32 %70, ptr %72, align 8
  %73 = load ptr, ptr %11, align 8
  %74 = load ptr, ptr %11, align 8
  %75 = load ptr, ptr %4, align 8
  %76 = getelementptr inbounds nuw %struct.JsonArrayQueryConstructor, ptr %75, i32 0, i32 3
  %77 = load ptr, ptr %76, align 8
  %78 = call ptr @makeJsonValueExpr(ptr noundef %73, ptr noundef %74, ptr noundef %77)
  %79 = load ptr, ptr %10, align 8
  %80 = getelementptr inbounds nuw %struct.JsonArrayAgg, ptr %79, i32 0, i32 2
  store ptr %78, ptr %80, align 8
  %81 = load ptr, ptr %4, align 8
  %82 = getelementptr inbounds nuw %struct.JsonArrayQueryConstructor, ptr %81, i32 0, i32 4
  %83 = load i8, ptr %82, align 8, !range !6, !noundef !7
  %84 = trunc i8 %83 to i1
  %85 = load ptr, ptr %10, align 8
  %86 = getelementptr inbounds nuw %struct.JsonArrayAgg, ptr %85, i32 0, i32 3
  %87 = zext i1 %84 to i8
  store i8 %87, ptr %86, align 8
  %88 = call ptr @newNode(i64 noundef 48, i32 noundef 133)
  %89 = load ptr, ptr %10, align 8
  %90 = getelementptr inbounds nuw %struct.JsonArrayAgg, ptr %89, i32 0, i32 1
  store ptr %88, ptr %90, align 8
  %91 = load ptr, ptr %10, align 8
  %92 = getelementptr inbounds nuw %struct.JsonArrayAgg, ptr %91, i32 0, i32 1
  %93 = load ptr, ptr %92, align 8
  %94 = getelementptr inbounds nuw %struct.JsonAggConstructor, ptr %93, i32 0, i32 3
  store ptr null, ptr %94, align 8
  %95 = load ptr, ptr %4, align 8
  %96 = getelementptr inbounds nuw %struct.JsonArrayQueryConstructor, ptr %95, i32 0, i32 2
  %97 = load ptr, ptr %96, align 8
  %98 = load ptr, ptr %10, align 8
  %99 = getelementptr inbounds nuw %struct.JsonArrayAgg, ptr %98, i32 0, i32 1
  %100 = load ptr, ptr %99, align 8
  %101 = getelementptr inbounds nuw %struct.JsonAggConstructor, ptr %100, i32 0, i32 1
  store ptr %97, ptr %101, align 8
  %102 = load ptr, ptr %4, align 8
  %103 = getelementptr inbounds nuw %struct.JsonArrayQueryConstructor, ptr %102, i32 0, i32 5
  %104 = load i32, ptr %103, align 4
  %105 = load ptr, ptr %10, align 8
  %106 = getelementptr inbounds nuw %struct.JsonArrayAgg, ptr %105, i32 0, i32 1
  %107 = load ptr, ptr %106, align 8
  %108 = getelementptr inbounds nuw %struct.JsonAggConstructor, ptr %107, i32 0, i32 5
  store i32 %104, ptr %108, align 8
  %109 = load ptr, ptr %9, align 8
  %110 = getelementptr inbounds nuw %struct.ResTarget, ptr %109, i32 0, i32 1
  store ptr null, ptr %110, align 8
  %111 = load ptr, ptr %9, align 8
  %112 = getelementptr inbounds nuw %struct.ResTarget, ptr %111, i32 0, i32 2
  store ptr null, ptr %112, align 8
  %113 = load ptr, ptr %10, align 8
  %114 = load ptr, ptr %9, align 8
  %115 = getelementptr inbounds nuw %struct.ResTarget, ptr %114, i32 0, i32 3
  store ptr %113, ptr %115, align 8
  %116 = load ptr, ptr %4, align 8
  %117 = getelementptr inbounds nuw %struct.JsonArrayQueryConstructor, ptr %116, i32 0, i32 5
  %118 = load i32, ptr %117, align 4
  %119 = load ptr, ptr %9, align 8
  %120 = getelementptr inbounds nuw %struct.ResTarget, ptr %119, i32 0, i32 4
  store i32 %118, ptr %120, align 8
  %121 = call ptr @pstrdup(ptr noundef @.str.150)
  %122 = load ptr, ptr %8, align 8
  %123 = getelementptr inbounds nuw %struct.Alias, ptr %122, i32 0, i32 1
  store ptr %121, ptr %123, align 8
  %124 = call ptr @pstrdup(ptr noundef @.str.151)
  %125 = call ptr @makeString(ptr noundef %124)
  store ptr %125, ptr %16, align 8
  %126 = getelementptr inbounds nuw %union.ListCell, ptr %16, i32 0, i32 0
  %127 = load ptr, ptr %126, align 8
  %128 = call ptr @list_make1_impl(i32 noundef 1, ptr %127)
  %129 = load ptr, ptr %8, align 8
  %130 = getelementptr inbounds nuw %struct.Alias, ptr %129, i32 0, i32 2
  store ptr %128, ptr %130, align 8
  %131 = load ptr, ptr %7, align 8
  %132 = getelementptr inbounds nuw %struct.RangeSubselect, ptr %131, i32 0, i32 1
  store i8 0, ptr %132, align 4
  %133 = load ptr, ptr %4, align 8
  %134 = getelementptr inbounds nuw %struct.JsonArrayQueryConstructor, ptr %133, i32 0, i32 1
  %135 = load ptr, ptr %134, align 8
  %136 = load ptr, ptr %7, align 8
  %137 = getelementptr inbounds nuw %struct.RangeSubselect, ptr %136, i32 0, i32 2
  store ptr %135, ptr %137, align 8
  %138 = load ptr, ptr %8, align 8
  %139 = load ptr, ptr %7, align 8
  %140 = getelementptr inbounds nuw %struct.RangeSubselect, ptr %139, i32 0, i32 3
  store ptr %138, ptr %140, align 8
  %141 = load ptr, ptr %9, align 8
  store ptr %141, ptr %17, align 8
  %142 = getelementptr inbounds nuw %union.ListCell, ptr %17, i32 0, i32 0
  %143 = load ptr, ptr %142, align 8
  %144 = call ptr @list_make1_impl(i32 noundef 1, ptr %143)
  %145 = load ptr, ptr %6, align 8
  %146 = getelementptr inbounds nuw %struct.SelectStmt, ptr %145, i32 0, i32 3
  store ptr %144, ptr %146, align 8
  %147 = load ptr, ptr %7, align 8
  store ptr %147, ptr %18, align 8
  %148 = getelementptr inbounds nuw %union.ListCell, ptr %18, i32 0, i32 0
  %149 = load ptr, ptr %148, align 8
  %150 = call ptr @list_make1_impl(i32 noundef 1, ptr %149)
  %151 = load ptr, ptr %6, align 8
  %152 = getelementptr inbounds nuw %struct.SelectStmt, ptr %151, i32 0, i32 4
  store ptr %150, ptr %152, align 8
  %153 = load ptr, ptr %5, align 8
  %154 = getelementptr inbounds nuw %struct.SubLink, ptr %153, i32 0, i32 1
  store i32 4, ptr %154, align 4
  %155 = load ptr, ptr %5, align 8
  %156 = getelementptr inbounds nuw %struct.SubLink, ptr %155, i32 0, i32 2
  store i32 0, ptr %156, align 8
  %157 = load ptr, ptr %5, align 8
  %158 = getelementptr inbounds nuw %struct.SubLink, ptr %157, i32 0, i32 3
  store ptr null, ptr %158, align 8
  %159 = load ptr, ptr %5, align 8
  %160 = getelementptr inbounds nuw %struct.SubLink, ptr %159, i32 0, i32 4
  store ptr null, ptr %160, align 8
  %161 = load ptr, ptr %6, align 8
  %162 = load ptr, ptr %5, align 8
  %163 = getelementptr inbounds nuw %struct.SubLink, ptr %162, i32 0, i32 5
  store ptr %161, ptr %163, align 8
  %164 = load ptr, ptr %4, align 8
  %165 = getelementptr inbounds nuw %struct.JsonArrayQueryConstructor, ptr %164, i32 0, i32 5
  %166 = load i32, ptr %165, align 4
  %167 = load ptr, ptr %5, align 8
  %168 = getelementptr inbounds nuw %struct.SubLink, ptr %167, i32 0, i32 6
  store i32 %166, ptr %168, align 8
  %169 = load ptr, ptr %3, align 8
  %170 = load ptr, ptr %5, align 8
  %171 = call ptr @transformExprRecurse(ptr noundef %169, ptr noundef %170)
  call void @llvm.lifetime.end.p0(i64 8, ptr %13) #8
  call void @llvm.lifetime.end.p0(i64 8, ptr %12) #8
  call void @llvm.lifetime.end.p0(i64 8, ptr %11) #8
  call void @llvm.lifetime.end.p0(i64 8, ptr %10) #8
  call void @llvm.lifetime.end.p0(i64 8, ptr %9) #8
  call void @llvm.lifetime.end.p0(i64 8, ptr %8) #8
  call void @llvm.lifetime.end.p0(i64 8, ptr %7) #8
  call void @llvm.lifetime.end.p0(i64 8, ptr %6) #8
  call void @llvm.lifetime.end.p0(i64 8, ptr %5) #8
  ret ptr %171
}