; Function Attrs: nounwind uwtable
define internal fastcc ptr @transformJsonArrayQueryConstructor(ptr noundef %0, ptr noundef nonnull readonly captures(none) %1) unnamed_addr #0 {
  %3 = tail call noundef ptr @palloc0(i64 noundef 48) #9
  store i32 22, ptr %3, align 4
  %4 = tail call noundef ptr @palloc0(i64 noundef 168) #9
  store i32 141, ptr %4, align 4
  %5 = tail call noundef ptr @palloc0(i64 noundef 24) #9
  store i32 85, ptr %5, align 4
  %6 = tail call noundef ptr @palloc0(i64 noundef 24) #9
  store i32 2, ptr %6, align 4
  %7 = tail call noundef ptr @palloc0(i64 noundef 40) #9
  store i32 81, ptr %7, align 4
  %8 = tail call noundef ptr @palloc0(i64 noundef 32) #9
  store i32 135, ptr %8, align 4
  %9 = tail call noundef ptr @palloc0(i64 noundef 24) #9
  store i32 69, ptr %9, align 4
  %10 = tail call ptr @make_parsestate(ptr noundef %0) #9
  %11 = getelementptr inbounds nuw i8, ptr %1, i64 8
  %12 = load ptr, ptr %11, align 8
  %13 = tail call ptr @transformStmt(ptr noundef %10, ptr noundef %12) #9
  %14 = getelementptr inbounds nuw i8, ptr %13, i64 112
  %15 = load ptr, ptr %14, align 8
  %16 = tail call i32 @count_nonjunk_tlist_entries(ptr noundef %15) #9
  %.not = icmp eq i32 %16, 1
  br i1 %.not, label %24, label %17

17:                                               ; preds = %2
  %18 = tail call zeroext i1 @errstart_cold(i32 noundef 21, ptr noundef null) #10
  tail call void @llvm.assume(i1 %18)
  %19 = tail call i32 @errcode(i32 noundef 16801924) #9
  %20 = tail call i32 (ptr, ...) @errmsg(ptr noundef nonnull @.str.103) #9
  %21 = getelementptr inbounds nuw i8, ptr %1, i64 36
  %22 = load i32, ptr %21, align 4
  %23 = tail call i32 @parser_errposition(ptr noundef %0, i32 noundef %22) #9
  tail call void @errfinish(ptr noundef nonnull @.str.41, i32 noundef 3773, ptr noundef nonnull @__func__.transformJsonArrayQueryConstructor) #9
  unreachable

24:                                               ; preds = %2
  tail call void @free_parsestate(ptr noundef %10) #9
  %25 = tail call ptr @pstrdup(ptr noundef nonnull @.str.150) #9
  %26 = tail call ptr @makeString(ptr noundef %25) #9
  %27 = tail call ptr @pstrdup(ptr noundef nonnull @.str.151) #9
  %28 = tail call ptr @makeString(ptr noundef %27) #9
  %29 = tail call ptr @list_make2_impl(i32 noundef 1, ptr %26, ptr %28) #9
  %30 = getelementptr inbounds nuw i8, ptr %9, i64 8
  store ptr %29, ptr %30, align 8
  %31 = getelementptr inbounds nuw i8, ptr %1, i64 36
  %32 = load i32, ptr %31, align 4
  %33 = getelementptr inbounds nuw i8, ptr %9, i64 16
  store i32 %32, ptr %33, align 8
  %34 = getelementptr inbounds nuw i8, ptr %1, i64 24
  %35 = load ptr, ptr %34, align 8
  %36 = tail call ptr @makeJsonValueExpr(ptr noundef nonnull %9, ptr noundef nonnull %9, ptr noundef %35) #9
  %37 = getelementptr inbounds nuw i8, ptr %8, i64 16
  store ptr %36, ptr %37, align 8
  %38 = getelementptr inbounds nuw i8, ptr %1, i64 32
  %39 = load i8, ptr %38, align 8, !range !4, !noundef !5
  %40 = getelementptr inbounds nuw i8, ptr %8, i64 24
  store i8 %39, ptr %40, align 8
  %41 = tail call noundef ptr @palloc0(i64 noundef 48) #9
  store i32 133, ptr %41, align 4
  %42 = getelementptr inbounds nuw i8, ptr %8, i64 8
  store ptr %41, ptr %42, align 8
  %43 = getelementptr inbounds nuw i8, ptr %41, i64 24
  store ptr null, ptr %43, align 8
  %44 = getelementptr inbounds nuw i8, ptr %1, i64 16
  %45 = load ptr, ptr %44, align 8
  %46 = load ptr, ptr %42, align 8
  %47 = getelementptr inbounds nuw i8, ptr %46, i64 8
  store ptr %45, ptr %47, align 8
  %48 = load i32, ptr %31, align 4
  %49 = load ptr, ptr %42, align 8
  %50 = getelementptr inbounds nuw i8, ptr %49, i64 40
  store i32 %48, ptr %50, align 8
  %51 = getelementptr inbounds nuw i8, ptr %7, i64 8
  %52 = getelementptr inbounds nuw i8, ptr %7, i64 24
  tail call void @llvm.memset.p0.i64(ptr noundef nonnull align 8 dereferenceable(16) %51, i8 0, i64 16, i1 false)
  store ptr %8, ptr %52, align 8
  %53 = load i32, ptr %31, align 4
  %54 = getelementptr inbounds nuw i8, ptr %7, i64 32
  store i32 %53, ptr %54, align 8
  %55 = tail call ptr @pstrdup(ptr noundef nonnull @.str.150) #9
  %56 = getelementptr inbounds nuw i8, ptr %6, i64 8
  store ptr %55, ptr %56, align 8
  %57 = tail call ptr @pstrdup(ptr noundef nonnull @.str.151) #9
  %58 = tail call ptr @makeString(ptr noundef %57) #9
  %59 = tail call ptr @list_make1_impl(i32 noundef 1, ptr %58) #9
  %60 = getelementptr inbounds nuw i8, ptr %6, i64 16
  store ptr %59, ptr %60, align 8
  %61 = getelementptr inbounds nuw i8, ptr %5, i64 4
  store i8 0, ptr %61, align 4
  %62 = load ptr, ptr %11, align 8
  %63 = getelementptr inbounds nuw i8, ptr %5, i64 8
  store ptr %62, ptr %63, align 8
  %64 = getelementptr inbounds nuw i8, ptr %5, i64 16
  store ptr %6, ptr %64, align 8
  %65 = tail call ptr @list_make1_impl(i32 noundef 1, ptr nonnull %7) #9
  %66 = getelementptr inbounds nuw i8, ptr %4, i64 24
  store ptr %65, ptr %66, align 8
  %67 = tail call ptr @list_make1_impl(i32 noundef 1, ptr nonnull %5) #9
  %68 = getelementptr inbounds nuw i8, ptr %4, i64 32
  store ptr %67, ptr %68, align 8
  %69 = getelementptr inbounds nuw i8, ptr %3, i64 4
  store i32 4, ptr %69, align 4
  %70 = getelementptr inbounds nuw i8, ptr %3, i64 8
  store i32 0, ptr %70, align 8
  %71 = getelementptr inbounds nuw i8, ptr %3, i64 16
  %72 = getelementptr inbounds nuw i8, ptr %3, i64 32
  tail call void @llvm.memset.p0.i64(ptr noundef nonnull align 8 dereferenceable(16) %71, i8 0, i64 16, i1 false)
  store ptr %4, ptr %72, align 8
  %73 = load i32, ptr %31, align 4
  %74 = getelementptr inbounds nuw i8, ptr %3, i64 40
  store i32 %73, ptr %74, align 8
  %75 = tail call fastcc ptr @transformExprRecurse(ptr noundef %0, ptr noundef nonnull %3)
  ret ptr %75
}